; Function Attrs: nounwind uwtable
define internal ptr @_cmsDupDefaultFn(ptr noundef %0, ptr noundef readonly %1, i32 noundef %2) #6 {
  %4 = icmp ugt i32 %2, 536870912
  br i1 %4, label %13, label %5

5:                                                ; preds = %3
  %6 = tail call ptr @_cmsContextGetClientChunk(ptr noundef %0, i32 noundef 4) #20
  %7 = load ptr, ptr %6, align 8
  %8 = tail call ptr %7(ptr noundef %0, i32 noundef %2) #20
  %9 = icmp ne ptr %8, null
  %10 = icmp ne ptr %1, null
  %or.cond = and i1 %10, %9
  br i1 %or.cond, label %11, label %13

11:                                               ; preds = %5
  %12 = zext nneg i32 %2 to i64
  tail call void @llvm.memmove.p0.p0.i64(ptr nonnull align 1 %8, ptr nonnull align 1 %1, i64 %12, i1 false)
  br label %13

13:                                               ; preds = %5, %11, %3
  %.0 = phi ptr [ null, %3 ], [ %8, %11 ], [ %8, %5 ]
  ret ptr %.0
}